; Function Attrs: nofree norecurse nosync nounwind memory(readwrite, inaccessiblemem: none) uwtable
define hidden void @VP8SetIntra16Mode(ptr noundef readonly captures(none) %0, i32 noundef %1) local_unnamed_addr #5 {
  %3 = getelementptr inbounds nuw i8, ptr %0, i64 64
  %4 = load ptr, ptr %3, align 8, !tbaa !33
  %5 = trunc i32 %1 to i8
  %6 = getelementptr inbounds nuw i8, ptr %0, i64 40
  br label %7

7:                                                ; preds = %2, %7
  %.09 = phi i32 [ 0, %2 ], [ %13, %7 ]
  %.078 = phi ptr [ %4, %2 ], [ %12, %7 ]
  tail call void @llvm.memset.p0.i64(ptr noundef nonnull align 1 dereferenceable(4) %.078, i8 %5, i64 4, i1 false)
  %8 = load ptr, ptr %6, align 8, !tbaa !3
  %9 = getelementptr inbounds nuw i8, ptr %8, i64 56
  %10 = load i32, ptr %9, align 8, !tbaa !32
  %11 = sext i32 %10 to i64
  %12 = getelementptr inbounds i8, ptr %.078, i64 %11
  %13 = add nuw nsw i32 %.09, 1
  %exitcond.not = icmp eq i32 %13, 4
  br i1 %exitcond.not, label %14, label %7, !llvm.loop !85

14:                                               ; preds = %7
  %15 = getelementptr inbounds nuw i8, ptr %0, i64 48
  %16 = load ptr, ptr %15, align 8, !tbaa !38
  %17 = load i8, ptr %16, align 4
  %18 = and i8 %17, -4
  %19 = or disjoint i8 %18, 1
  store i8 %19, ptr %16, align 4
  ret void
}